; ModuleID = '31/1983.c'
source_filename = "31/1983.c"
target datalayout = "e-m:e-p270:32:32-p271:32:32-p272:64:64-i64:64-f80:128-n8:16:32:64-S128"
target triple = "x86_64-pc-linux-gnu"

%struct.student = type { [10 x i8], [20 x i8], i8, i32, [10 x i8], [20 x i8], %struct.student* }

@.str = private unnamed_addr constant [18 x i8] c"%s %s %c %d %s %s\00", align 1
@.str.1 = private unnamed_addr constant [4 x i8] c"end\00", align 1
@.str.2 = private unnamed_addr constant [19 x i8] c"%s %s %c %d %s %s\0A\00", align 1

; Function Attrs: noinline nounwind uwtable
define dso_local %struct.student* @creat() #0 {
  %1 = alloca %struct.student*, align 8
  %2 = alloca %struct.student*, align 8
  %3 = alloca %struct.student*, align 8
  %4 = call noalias i8* @malloc(i64 100) #4
  %5 = bitcast i8* %4 to %struct.student*
  store %struct.student* %5, %struct.student** %3, align 8
  store %struct.student* %5, %struct.student** %2, align 8
  %6 = load %struct.student*, %struct.student** %2, align 8
  %7 = getelementptr inbounds %struct.student, %struct.student* %6, i32 0, i32 0
  %8 = getelementptr inbounds [10 x i8], [10 x i8]* %7, i64 0, i64 0
  %9 = load %struct.student*, %struct.student** %2, align 8
  %10 = getelementptr inbounds %struct.student, %struct.student* %9, i32 0, i32 1
  %11 = getelementptr inbounds [20 x i8], [20 x i8]* %10, i64 0, i64 0
  %12 = load %struct.student*, %struct.student** %2, align 8
  %13 = getelementptr inbounds %struct.student, %struct.student* %12, i32 0, i32 2
  %14 = load %struct.student*, %struct.student** %2, align 8
  %15 = getelementptr inbounds %struct.student, %struct.student* %14, i32 0, i32 3
  %16 = load %struct.student*, %struct.student** %2, align 8
  %17 = getelementptr inbounds %struct.student, %struct.student* %16, i32 0, i32 4
  %18 = getelementptr inbounds [10 x i8], [10 x i8]* %17, i64 0, i64 0
  %19 = load %struct.student*, %struct.student** %2, align 8
  %20 = getelementptr inbounds %struct.student, %struct.student* %19, i32 0, i32 5
  %21 = getelementptr inbounds [20 x i8], [20 x i8]* %20, i64 0, i64 0
  %22 = call i32 (i8*, ...) @__isoc99_scanf(i8* getelementptr inbounds ([18 x i8], [18 x i8]* @.str, i64 0, i64 0), i8* %8, i8* %11, i8* %13, i32* %15, i8* %18, i8* %21)
  %23 = load %struct.student*, %struct.student** %2, align 8
  store %struct.student* %23, %struct.student** %1, align 8
  br label %24

24:                                               ; preds = %49, %0
  %25 = call noalias i8* @malloc(i64 100) #4
  %26 = bitcast i8* %25 to %struct.student*
  store %struct.student* %26, %struct.student** %2, align 8
  %27 = load %struct.student*, %struct.student** %2, align 8
  %28 = getelementptr inbounds %struct.student, %struct.student* %27, i32 0, i32 0
  %29 = getelementptr inbounds [10 x i8], [10 x i8]* %28, i64 0, i64 0
  %30 = load %struct.student*, %struct.student** %2, align 8
  %31 = getelementptr inbounds %struct.student, %struct.student* %30, i32 0, i32 1
  %32 = getelementptr inbounds [20 x i8], [20 x i8]* %31, i64 0, i64 0
  %33 = load %struct.student*, %struct.student** %2, align 8
  %34 = getelementptr inbounds %struct.student, %struct.student* %33, i32 0, i32 2
  %35 = load %struct.student*, %struct.student** %2, align 8
  %36 = getelementptr inbounds %struct.student, %struct.student* %35, i32 0, i32 3
  %37 = load %struct.student*, %struct.student** %2, align 8
  %38 = getelementptr inbounds %struct.student, %struct.student* %37, i32 0, i32 4
  %39 = getelementptr inbounds [10 x i8], [10 x i8]* %38, i64 0, i64 0
  %40 = load %struct.student*, %struct.student** %2, align 8
  %41 = getelementptr inbounds %struct.student, %struct.student* %40, i32 0, i32 5
  %42 = getelementptr inbounds [20 x i8], [20 x i8]* %41, i64 0, i64 0
  %43 = call i32 (i8*, ...) @__isoc99_scanf(i8* getelementptr inbounds ([18 x i8], [18 x i8]* @.str, i64 0, i64 0), i8* %29, i8* %32, i8* %34, i32* %36, i8* %39, i8* %42)
  %44 = load %struct.student*, %struct.student** %2, align 8
  %45 = getelementptr inbounds %struct.student, %struct.student* %44, i32 0, i32 0
  %46 = getelementptr inbounds [10 x i8], [10 x i8]* %45, i64 0, i64 0
  %47 = call i32 @strcmp(i8* %46, i8* getelementptr inbounds ([4 x i8], [4 x i8]* @.str.1, i64 0, i64 0)) #5
  %48 = icmp ne i32 %47, 0
  br i1 %48, label %49, label %54

49:                                               ; preds = %24
  %50 = load %struct.student*, %struct.student** %2, align 8
  %51 = load %struct.student*, %struct.student** %3, align 8
  %52 = getelementptr inbounds %struct.student, %struct.student* %51, i32 0, i32 6
  store %struct.student* %50, %struct.student** %52, align 8
  %53 = load %struct.student*, %struct.student** %2, align 8
  store %struct.student* %53, %struct.student** %3, align 8
  br label %24

54:                                               ; preds = %24
  %55 = load %struct.student*, %struct.student** %3, align 8
  %56 = getelementptr inbounds %struct.student, %struct.student* %55, i32 0, i32 6
  store %struct.student* null, %struct.student** %56, align 8
  br label %57

57:                                               ; preds = %54
  %58 = load %struct.student*, %struct.student** %1, align 8
  ret %struct.student* %58
}

; Function Attrs: nounwind
declare dso_local noalias i8* @malloc(i64) #1

declare dso_local i32 @__isoc99_scanf(i8*, ...) #2

; Function Attrs: nounwind readonly
declare dso_local i32 @strcmp(i8*, i8*) #3

; Function Attrs: noinline nounwind uwtable
define dso_local %struct.student* @reverse(%struct.student* %0) #0 {
  %2 = alloca %struct.student*, align 8
  %3 = alloca %struct.student*, align 8
  %4 = alloca %struct.student*, align 8
  %5 = alloca %struct.student*, align 8
  store %struct.student* %0, %struct.student** %2, align 8
  store %struct.student* null, %struct.student** %4, align 8
  %6 = load %struct.student*, %struct.student** %2, align 8
  store %struct.student* %6, %struct.student** %3, align 8
  br label %7

7:                                                ; preds = %10, %1
  %8 = load %struct.student*, %struct.student** %3, align 8
  %9 = icmp ne %struct.student* %8, null
  br i1 %9, label %10, label %19

10:                                               ; preds = %7
  %11 = load %struct.student*, %struct.student** %3, align 8
  %12 = getelementptr inbounds %struct.student, %struct.student* %11, i32 0, i32 6
  %13 = load %struct.student*, %struct.student** %12, align 8
  store %struct.student* %13, %struct.student** %5, align 8
  %14 = load %struct.student*, %struct.student** %4, align 8
  %15 = load %struct.student*, %struct.student** %3, align 8
  %16 = getelementptr inbounds %struct.student, %struct.student* %15, i32 0, i32 6
  store %struct.student* %14, %struct.student** %16, align 8
  %17 = load %struct.student*, %struct.student** %3, align 8
  store %struct.student* %17, %struct.student** %4, align 8
  %18 = load %struct.student*, %struct.student** %5, align 8
  store %struct.student* %18, %struct.student** %3, align 8
  br label %7

19:                                               ; preds = %7
  %20 = load %struct.student*, %struct.student** %4, align 8
  ret %struct.student* %20
}

; Function Attrs: noinline nounwind uwtable
define dso_local i32 @main() #0 {
  %1 = alloca i32, align 4
  %2 = alloca %struct.student*, align 8
  %3 = alloca %struct.student*, align 8
  %4 = alloca %struct.student*, align 8
  store i32 0, i32* %1, align 4
  %5 = call %struct.student* @creat()
  store %struct.student* %5, %struct.student** %2, align 8
  %6 = load %struct.student*, %struct.student** %2, align 8
  %7 = call %struct.student* @reverse(%struct.student* %6)
  store %struct.student* %7, %struct.student** %3, align 8
  %8 = load %struct.student*, %struct.student** %3, align 8
  store %struct.student* %8, %struct.student** %4, align 8
  br label %9

9:                                                ; preds = %12, %0
  %10 = load %struct.student*, %struct.student** %4, align 8
  %11 = icmp ne %struct.student* %10, null
  br i1 %11, label %12, label %36

12:                                               ; preds = %9
  %13 = load %struct.student*, %struct.student** %4, align 8
  %14 = getelementptr inbounds %struct.student, %struct.student* %13, i32 0, i32 0
  %15 = getelementptr inbounds [10 x i8], [10 x i8]* %14, i64 0, i64 0
  %16 = load %struct.student*, %struct.student** %4, align 8
  %17 = getelementptr inbounds %struct.student, %struct.student* %16, i32 0, i32 1
  %18 = getelementptr inbounds [20 x i8], [20 x i8]* %17, i64 0, i64 0
  %19 = load %struct.student*, %struct.student** %4, align 8
  %20 = getelementptr inbounds %struct.student, %struct.student* %19, i32 0, i32 2
  %21 = load i8, i8* %20, align 2
  %22 = sext i8 %21 to i32
  %23 = load %struct.student*, %struct.student** %4, align 8
  %24 = getelementptr inbounds %struct.student, %struct.student* %23, i32 0, i32 3
  %25 = load i32, i32* %24, align 8
  %26 = load %struct.student*, %struct.student** %4, align 8
  %27 = getelementptr inbounds %struct.student, %struct.student* %26, i32 0, i32 4
  %28 = getelementptr inbounds [10 x i8], [10 x i8]* %27, i64 0, i64 0
  %29 = load %struct.student*, %struct.student** %4, align 8
  %30 = getelementptr inbounds %struct.student, %struct.student* %29, i32 0, i32 5
  %31 = getelementptr inbounds [20 x i8], [20 x i8]* %30, i64 0, i64 0
  %32 = call i32 (i8*, ...) @printf(i8* getelementptr inbounds ([19 x i8], [19 x i8]* @.str.2, i64 0, i64 0), i8* %15, i8* %18, i32 %22, i32 %25, i8* %28, i8* %31)
  %33 = load %struct.student*, %struct.student** %4, align 8
  %34 = getelementptr inbounds %struct.student, %struct.student* %33, i32 0, i32 6
  %35 = load %struct.student*, %struct.student** %34, align 8
  store %struct.student* %35, %struct.student** %4, align 8
  br label %9

36:                                               ; preds = %9
  ret i32 0
}

declare dso_local i32 @printf(i8*, ...) #2


!llvm.module.flags = !{!0}
!llvm.ident = !{!1}

!0 = !{i32 1, !"wchar_size", i32 4}
!1 = !{!"clang version 10.0.0-4ubuntu1 "}
